; Function Attrs: mustprogress nounwind uwtable
define void @_ZN5Ipopt22LowRankUpdateSymMatrixD2Ev(ptr noundef nonnull align 8 dereferenceable(112) initializes((0, 8), (16, 24)) %0) unnamed_addr #2 align 2 personality ptr @__gxx_personality_v0 {
  store ptr getelementptr inbounds nuw inrange(-16, 96) (i8, ptr @_ZTVN5Ipopt22LowRankUpdateSymMatrixE, i64 16), ptr %0, align 8, !tbaa !8
  %2 = getelementptr inbounds nuw i8, ptr %0, i64 16
  store ptr getelementptr inbounds nuw inrange(-16, 16) (i8, ptr @_ZTVN5Ipopt22LowRankUpdateSymMatrixE, i64 128), ptr %2, align 8, !tbaa !8
  %3 = getelementptr inbounds nuw i8, ptr %0, i64 104
  %4 = load ptr, ptr %3, align 8, !tbaa !31
  %.not.i.i = icmp eq ptr %4, null
  br i1 %.not.i.i, label %_ZN5Ipopt8SmartPtrIKNS_17MultiVectorMatrixEED2Ev.exit, label %5

5:                                                ; preds = %1
  %6 = getelementptr inbounds nuw i8, ptr %4, i64 8
  %7 = load i32, ptr %6, align 8, !tbaa !3
  %8 = add nsw i32 %7, -1
  store i32 %8, ptr %6, align 8, !tbaa !3
  %9 = icmp eq i32 %8, 0
  br i1 %9, label %10, label %_ZN5Ipopt8SmartPtrIKNS_17MultiVectorMatrixEED2Ev.exit

10:                                               ; preds = %5
  %11 = load ptr, ptr %4, align 8, !tbaa !8
  %12 = getelementptr inbounds nuw i8, ptr %11, i64 8
  %13 = load ptr, ptr %12, align 8
  tail call void %13(ptr noundef nonnull align 8 dereferenceable(128) %4) #16
  store ptr null, ptr %3, align 8, !tbaa !31
  br label %_ZN5Ipopt8SmartPtrIKNS_17MultiVectorMatrixEED2Ev.exit

_ZN5Ipopt8SmartPtrIKNS_17MultiVectorMatrixEED2Ev.exit: ; preds = %1, %5, %10
  %14 = getelementptr inbounds nuw i8, ptr %0, i64 96
  %15 = load ptr, ptr %14, align 8, !tbaa !31
  %.not.i.i1 = icmp eq ptr %15, null
  br i1 %.not.i.i1, label %_ZN5Ipopt8SmartPtrIKNS_17MultiVectorMatrixEED2Ev.exit2, label %16

16:                                               ; preds = %_ZN5Ipopt8SmartPtrIKNS_17MultiVectorMatrixEED2Ev.exit
  %17 = getelementptr inbounds nuw i8, ptr %15, i64 8
  %18 = load i32, ptr %17, align 8, !tbaa !3
  %19 = add nsw i32 %18, -1
  store i32 %19, ptr %17, align 8, !tbaa !3
  %20 = icmp eq i32 %19, 0
  br i1 %20, label %21, label %_ZN5Ipopt8SmartPtrIKNS_17MultiVectorMatrixEED2Ev.exit2

21:                                               ; preds = %16
  %22 = load ptr, ptr %15, align 8, !tbaa !8
  %23 = getelementptr inbounds nuw i8, ptr %22, i64 8
  %24 = load ptr, ptr %23, align 8
  tail call void %24(ptr noundef nonnull align 8 dereferenceable(128) %15) #16
  store ptr null, ptr %14, align 8, !tbaa !31
  br label %_ZN5Ipopt8SmartPtrIKNS_17MultiVectorMatrixEED2Ev.exit2

_ZN5Ipopt8SmartPtrIKNS_17MultiVectorMatrixEED2Ev.exit2: ; preds = %_ZN5Ipopt8SmartPtrIKNS_17MultiVectorMatrixEED2Ev.exit, %16, %21
  %25 = getelementptr inbounds nuw i8, ptr %0, i64 88
  %26 = load ptr, ptr %25, align 8, !tbaa !34
  %.not.i.i3 = icmp eq ptr %26, null
  br i1 %.not.i.i3, label %_ZN5Ipopt8SmartPtrIKNS_6VectorEED2Ev.exit, label %27

27:                                               ; preds = %_ZN5Ipopt8SmartPtrIKNS_17MultiVectorMatrixEED2Ev.exit2
  %28 = getelementptr inbounds nuw i8, ptr %26, i64 8
  %29 = load i32, ptr %28, align 8, !tbaa !3
  %30 = add nsw i32 %29, -1
  store i32 %30, ptr %28, align 8, !tbaa !3
  %31 = icmp eq i32 %30, 0
  br i1 %31, label %32, label %_ZN5Ipopt8SmartPtrIKNS_6VectorEED2Ev.exit

32:                                               ; preds = %27
  %33 = load ptr, ptr %26, align 8, !tbaa !8
  %34 = getelementptr inbounds nuw i8, ptr %33, i64 8
  %35 = load ptr, ptr %34, align 8
  tail call void %35(ptr noundef nonnull align 8 dereferenceable(205) %26) #16
  store ptr null, ptr %25, align 8, !tbaa !34
  br label %_ZN5Ipopt8SmartPtrIKNS_6VectorEED2Ev.exit

_ZN5Ipopt8SmartPtrIKNS_6VectorEED2Ev.exit:        ; preds = %_ZN5Ipopt8SmartPtrIKNS_17MultiVectorMatrixEED2Ev.exit2, %27, %32
  %36 = getelementptr inbounds nuw i8, ptr %0, i64 80
  %37 = load ptr, ptr %36, align 8, !tbaa !28
  %.not.i.i4 = icmp eq ptr %37, null
  br i1 %.not.i.i4, label %_ZN5Ipopt8SmartPtrIKNS_27LowRankUpdateSymMatrixSpaceEED2Ev.exit, label %38

38:                                               ; preds = %_ZN5Ipopt8SmartPtrIKNS_6VectorEED2Ev.exit
  %39 = getelementptr inbounds nuw i8, ptr %37, i64 8
  %40 = load i32, ptr %39, align 8, !tbaa !3
  %41 = add nsw i32 %40, -1
  store i32 %41, ptr %39, align 8, !tbaa !3
  %42 = icmp eq i32 %41, 0
  br i1 %42, label %43, label %_ZN5Ipopt8SmartPtrIKNS_27LowRankUpdateSymMatrixSpaceEED2Ev.exit

43:                                               ; preds = %38
  %44 = load ptr, ptr %37, align 8, !tbaa !8
  %45 = getelementptr inbounds nuw i8, ptr %44, i64 8
  %46 = load ptr, ptr %45, align 8
  tail call void %46(ptr noundef nonnull align 8 dereferenceable(41) %37) #16
  store ptr null, ptr %36, align 8, !tbaa !28
  br label %_ZN5Ipopt8SmartPtrIKNS_27LowRankUpdateSymMatrixSpaceEED2Ev.exit

_ZN5Ipopt8SmartPtrIKNS_27LowRankUpdateSymMatrixSpaceEED2Ev.exit: ; preds = %_ZN5Ipopt8SmartPtrIKNS_6VectorEED2Ev.exit, %38, %43
  store ptr getelementptr inbounds nuw inrange(-16, 96) (i8, ptr @_ZTVN5Ipopt6MatrixE, i64 16), ptr %0, align 8, !tbaa !8
  store ptr getelementptr inbounds nuw inrange(-16, 16) (i8, ptr @_ZTVN5Ipopt6MatrixE, i64 128), ptr %2, align 8, !tbaa !8
  %47 = getelementptr inbounds nuw i8, ptr %0, i64 56
  %48 = load ptr, ptr %47, align 8, !tbaa !10
  %.not.i.i.i = icmp eq ptr %48, null
  br i1 %.not.i.i.i, label %_ZN5Ipopt6MatrixD2Ev.exit, label %49

49:                                               ; preds = %_ZN5Ipopt8SmartPtrIKNS_27LowRankUpdateSymMatrixSpaceEED2Ev.exit
  %50 = getelementptr inbounds nuw i8, ptr %48, i64 8
  %51 = load i32, ptr %50, align 8, !tbaa !3
  %52 = add nsw i32 %51, -1
  store i32 %52, ptr %50, align 8, !tbaa !3
  %53 = icmp eq i32 %52, 0
  br i1 %53, label %54, label %_ZN5Ipopt6MatrixD2Ev.exit

54:                                               ; preds = %49
  %55 = load ptr, ptr %48, align 8, !tbaa !8
  %56 = getelementptr inbounds nuw i8, ptr %55, i64 8
  %57 = load ptr, ptr %56, align 8
  tail call void %57(ptr noundef nonnull align 8 dereferenceable(20) %48) #16
  store ptr null, ptr %47, align 8, !tbaa !10
  br label %_ZN5Ipopt6MatrixD2Ev.exit

_ZN5Ipopt6MatrixD2Ev.exit:                        ; preds = %_ZN5Ipopt8SmartPtrIKNS_27LowRankUpdateSymMatrixSpaceEED2Ev.exit, %49, %54
  tail call void @_ZN5Ipopt7SubjectD2Ev(ptr noundef nonnull align 8 dereferenceable(32) %2) #16
  store ptr getelementptr inbounds nuw inrange(-16, 16) (i8, ptr @_ZTVN5Ipopt16ReferencedObjectE, i64 16), ptr %0, align 8, !tbaa !8
  ret void
}